target datalayout = "e-m:e-p270:32:32-p271:32:32-p272:64:64-i64:64-i128:128-f80:128-n8:16:32:64-S128"
target triple = "x86_64-pc-linux-gnu"

%struct.ZSTD_matchState_t = type { %struct.ZSTD_window_t, i32, i32, i32, i32, ptr, [8 x i32], i64, i32, ptr, ptr, ptr, i32, i32, %struct.optState_t, ptr, %struct.ZSTD_compressionParameters, ptr, i32, i32 }
%struct.ZSTD_window_t = type { ptr, ptr, ptr, i32, i32, i32 }
%struct.optState_t = type { ptr, ptr, ptr, ptr, ptr, ptr, i32, i32, i32, i32, i32, i32, i32, i32, i32, ptr, i32 }
%struct.ZSTD_compressionParameters = type { i32, i32, i32, i32, i32, i32, i32 }

; Function Attrs: nounwind uwtable
define dso_local void @ZSTD_updateTree(ptr noundef %0, ptr noundef %1, ptr noundef %2) #0 {
  %4 = alloca ptr, align 8
  %5 = alloca ptr, align 8
  %6 = alloca ptr, align 8
  %7 = alloca i32, align 4
  %8 = alloca i32, align 4
  %9 = alloca ptr, align 8
  %10 = alloca i32, align 4
  %11 = alloca i32, align 4
  %12 = alloca i32, align 4
  %13 = alloca ptr, align 8
  %14 = alloca ptr, align 8
  %15 = alloca ptr, align 8
  store ptr %0, ptr %13, align 8
  store ptr %1, ptr %14, align 8
  store ptr %2, ptr %15, align 8
  %16 = load ptr, ptr %13, align 8
  %17 = load ptr, ptr %14, align 8
  %18 = load ptr, ptr %15, align 8
  %19 = load ptr, ptr %13, align 8
  %20 = getelementptr inbounds %struct.ZSTD_matchState_t, ptr %19, i32 0, i32 16
  %21 = getelementptr inbounds %struct.ZSTD_compressionParameters, ptr %20, i32 0, i32 4
  %22 = load i32, ptr %21, align 8
  store ptr %16, ptr %4, align 8
  store ptr %17, ptr %5, align 8
  store ptr %18, ptr %6, align 8
  store i32 %22, ptr %7, align 4
  store i32 0, ptr %8, align 4
  %23 = load ptr, ptr %4, align 8
  %24 = getelementptr inbounds %struct.ZSTD_window_t, ptr %23, i32 0, i32 1
  %25 = load ptr, ptr %24, align 8
  store ptr %25, ptr %9, align 8
  %26 = load ptr, ptr %5, align 8
  %27 = load ptr, ptr %9, align 8
  %28 = ptrtoint ptr %26 to i64
  %29 = ptrtoint ptr %27 to i64
  %30 = sub i64 %28, %29
  %31 = trunc i64 %30 to i32
  store i32 %31, ptr %10, align 4
  %32 = load ptr, ptr %4, align 8
  %33 = getelementptr inbounds %struct.ZSTD_matchState_t, ptr %32, i32 0, i32 2
  %34 = load i32, ptr %33, align 4
  store i32 %34, ptr %11, align 4
  br label %35

35:                                               ; preds = %39, %3
  %36 = load i32, ptr %11, align 4
  %37 = load i32, ptr %10, align 4
  %38 = icmp ult i32 %36, %37
  br i1 %38, label %39, label %55

39:                                               ; preds = %35
  %40 = load ptr, ptr %4, align 8
  %41 = load ptr, ptr %9, align 8
  %42 = load i32, ptr %11, align 4
  %43 = zext i32 %42 to i64
  %44 = getelementptr inbounds i8, ptr %41, i64 %43
  %45 = load ptr, ptr %6, align 8
  %46 = load i32, ptr %10, align 4
  %47 = load i32, ptr %7, align 4
  %48 = load i32, ptr %8, align 4
  %49 = icmp eq i32 %48, 1
  %50 = zext i1 %49 to i32
  %51 = call i32 @ZSTD_insertBt1(ptr noundef %40, ptr noundef %44, ptr noundef %45, i32 noundef %46, i32 noundef %47, i32 noundef %50)
  store i32 %51, ptr %12, align 4
  %52 = load i32, ptr %12, align 4
  %53 = load i32, ptr %11, align 4
  %54 = add i32 %53, %52
  store i32 %54, ptr %11, align 4
  br label %35, !llvm.loop !5

55:                                               ; preds = %35
  %56 = load i32, ptr %10, align 4
  %57 = load ptr, ptr %4, align 8
  %58 = getelementptr inbounds %struct.ZSTD_matchState_t, ptr %57, i32 0, i32 2
  store i32 %56, ptr %58, align 4
  ret void
}