; Function Attrs: nofree norecurse nosync nounwind memory(readwrite, inaccessiblemem: none) uwtable
define dso_local void @ZSTD_updateTree(ptr noundef captures(none) %0, ptr noundef %1, ptr noundef %2) local_unnamed_addr #0 {
  %4 = getelementptr inbounds nuw i8, ptr %0, i64 272
  %5 = load i32, ptr %4, align 8
  %6 = getelementptr inbounds nuw i8, ptr %0, i64 8
  %7 = load ptr, ptr %6, align 8
  %8 = ptrtoint ptr %1 to i64
  %9 = ptrtoint ptr %7 to i64
  %10 = sub i64 %8, %9
  %11 = trunc i64 %10 to i32
  %12 = getelementptr inbounds nuw i8, ptr %0, i64 44
  %13 = load i32, ptr %12, align 4
  %14 = icmp ult i32 %13, %11
  br i1 %14, label %.lr.ph, label %._crit_edge

.lr.ph:                                           ; preds = %3, %.lr.ph
  %.021 = phi i32 [ %18, %.lr.ph ], [ %13, %3 ]
  %15 = zext i32 %.021 to i64
  %16 = getelementptr inbounds nuw i8, ptr %7, i64 %15
  %17 = tail call fastcc i32 @ZSTD_insertBt1(ptr noundef %0, ptr noundef %16, ptr noundef %2, i32 noundef %11, i32 noundef %5, i32 noundef 0)
  %18 = add i32 %17, %.021
  %19 = icmp ult i32 %18, %11
  br i1 %19, label %.lr.ph, label %._crit_edge, !llvm.loop !5

._crit_edge:                                      ; preds = %.lr.ph, %3
  store i32 %11, ptr %12, align 4
  ret void
}